; Function Attrs: mustprogress nounwind uwtable
define internal fastcc void @_ZN4ncnnL28convdw3x3s2_int8_requant_sseERKNS_3MatERS0_S2_S2_St6vectorIfSaIfEERKNS_6OptionE(ptr noundef nonnull align 8 dereferenceable(72) %0, ptr noundef nonnull align 8 dereferenceable(72) %1, ptr noundef nonnull readonly align 8 captures(none) dereferenceable(72) %2, ptr noundef nonnull readonly align 8 captures(none) dereferenceable(72) %3, ptr noundef nonnull %4, ptr noundef nonnull readonly align 8 captures(none) dereferenceable(64) %5) unnamed_addr #12 {
  %7 = alloca i32, align 4
  %8 = alloca i32, align 4
  %9 = alloca i32, align 4
  %10 = alloca i32, align 4
  %11 = alloca i32, align 4
  %12 = alloca ptr, align 8
  %13 = alloca ptr, align 8
  %14 = tail call i32 @__kmpc_global_thread_num(ptr nonnull @2)
  call void @llvm.lifetime.start.p0(i64 4, ptr nonnull %7) #14
  %15 = getelementptr inbounds nuw i8, ptr %0, i64 44
  %16 = load i32, ptr %15, align 4, !tbaa !61
  store i32 %16, ptr %7, align 4, !tbaa !82
  call void @llvm.lifetime.start.p0(i64 4, ptr nonnull %8) #14
  %17 = getelementptr inbounds nuw i8, ptr %1, i64 44
  %18 = load i32, ptr %17, align 4, !tbaa !61
  store i32 %18, ptr %8, align 4, !tbaa !82
  call void @llvm.lifetime.start.p0(i64 4, ptr nonnull %9) #14
  %19 = getelementptr inbounds nuw i8, ptr %1, i64 48
  %20 = load i32, ptr %19, align 8, !tbaa !62
  store i32 %20, ptr %9, align 4, !tbaa !82
  call void @llvm.lifetime.start.p0(i64 4, ptr nonnull %10) #14
  %21 = getelementptr inbounds nuw i8, ptr %1, i64 56
  %22 = load i32, ptr %21, align 8, !tbaa !64
  store i32 %22, ptr %10, align 4, !tbaa !82
  call void @llvm.lifetime.start.p0(i64 4, ptr nonnull %11) #14
  %23 = sub i32 %16, %18
  %24 = shl i32 %23, 1
  store i32 %24, ptr %11, align 4, !tbaa !82
  call void @llvm.lifetime.start.p0(i64 8, ptr nonnull %12) #14
  %25 = load ptr, ptr %2, align 8, !tbaa !16
  store ptr %25, ptr %12, align 8, !tbaa !284
  call void @llvm.lifetime.start.p0(i64 8, ptr nonnull %13) #14
  %26 = load ptr, ptr %3, align 8, !tbaa !16
  store ptr %26, ptr %13, align 8, !tbaa !148
  %27 = getelementptr inbounds nuw i8, ptr %5, i64 4
  %28 = load i32, ptr %27, align 4, !tbaa !86
  tail call void @__kmpc_push_num_threads(ptr nonnull @2, i32 %14, i32 %28)
  call void (ptr, i32, ptr, ...) @__kmpc_fork_call(ptr nonnull @2, i32 10, ptr nonnull @_ZN4ncnnL28convdw3x3s2_int8_requant_sseERKNS_3MatERS0_S2_S2_St6vectorIfSaIfEERKNS_6OptionE.omp_outlined, ptr nonnull %10, ptr nonnull %1, ptr nonnull %13, ptr nonnull %4, ptr nonnull %12, ptr nonnull %0, ptr nonnull %7, ptr nonnull %9, ptr nonnull %8, ptr nonnull %11)
  call void @llvm.lifetime.end.p0(i64 8, ptr nonnull %13) #14
  call void @llvm.lifetime.end.p0(i64 8, ptr nonnull %12) #14
  call void @llvm.lifetime.end.p0(i64 4, ptr nonnull %11) #14
  call void @llvm.lifetime.end.p0(i64 4, ptr nonnull %10) #14
  call void @llvm.lifetime.end.p0(i64 4, ptr nonnull %9) #14
  call void @llvm.lifetime.end.p0(i64 4, ptr nonnull %8) #14
  call void @llvm.lifetime.end.p0(i64 4, ptr nonnull %7) #14
  ret void
}